LIBRARY libmx.dll
EXPORTS
??0?$Mprotected_cptr@UmxArray_tag@@VMprotected_mxArray_helper@@@@QEAA@AEBV0@@Z
??0?$Mprotected_cptr@UmxArray_tag@@VMprotected_mxArray_helper@@@@QEAA@PEAUmxArray_tag@@_N@Z
??0?$Mprotected_cptr@UmxArray_tag@@VMprotected_mxArray_helper@@@@QEAA@XZ
??0Mprotected_mxArray@@QEAA@AEBV0@@Z
??0Mprotected_mxArray@@QEAA@PEAUmxArray_tag@@_N@Z
??0Mprotected_mxArray@@QEAA@XZ
??0RRTableVisitor@@QEAA@AEBV0@@Z
??0RRTableVisitor@@QEAA@XZ
??0RootRecordPtr@@QEAA@AEBV0@@Z
??0RootRecordPtr@@QEAA@PEAURootRecord@@@Z
??0RootRecordPtr@@QEAA@XZ
??0RootRecordVisitor@@QEAA@AEBV0@@Z
??0RootRecordVisitor@@QEAA@XZ
??0mxuint128@@QEAA@AEBV0@@Z
??0mxuint128@@QEAA@XZ
??0mxuint128@@QEAA@_K0@Z
??0mxuint128@@QEAA@_K@Z
??0scoped_AtArrayCreation@test@matrix@@QEAA@XZ
??1?$Mprotected_cptr@UmxArray_tag@@VMprotected_mxArray_helper@@@@QEAA@XZ
??1Mprotected_mxArray@@QEAA@XZ
??1RRTableVisitor@@UEAA@XZ
??1RootRecordPtr@@QEAA@XZ
??1RootRecordVisitor@@UEAA@XZ
??1scoped_AtArrayCreation@test@matrix@@QEAA@XZ
??2mxArray_tag@@SAPEAX_KAEBUnothrow_t@std@@@Z
??3mxArray_tag@@SAXPEAX@Z
??4?$Mprotected_cptr@UmxArray_tag@@VMprotected_mxArray_helper@@@@QEAAPEAUmxArray_tag@@PEAU1@@Z
??4?$Mprotected_cptr@UmxArray_tag@@VMprotected_mxArray_helper@@@@QEAAXAEBV0@@Z
??4Mprotected_mxArray@@QEAAPEAUmxArray_tag@@PEAU1@@Z
??4Mprotected_mxArray@@QEAAXAEBV0@@Z
??4Mprotected_mxArray_helper@@QEAAAEAV0@AEBV0@@Z
??4Mprotected_mxStringUTF16_helper@@QEAAAEAV0@AEBV0@@Z
??4Mprotected_mxStringUTF8_helper@@QEAAAEAV0@AEBV0@@Z
??4Mprotected_mxString_helper@@QEAAAEAV0@AEBV0@@Z
??4RRTableVisitor@@QEAAAEAV0@AEBV0@@Z
??4RootRecordPtr@@QEAAAEAV0@AEBV0@@Z
??4RootRecordPtr@@QEAAAEAV0@PEAURootRecord@@@Z
??4RootRecordVisitor@@QEAAAEAV0@AEBV0@@Z
??4_Init_locks@std@@QEAAAEAV01@AEBV01@@Z
??4mxArray_tag@@QEAAAEAU0@AEBU0@@Z
??4mxuint128@@QEAAAEAV0@AEBV0@@Z
??8RootRecordPtr@@QEBA_NPEBURootRecord@@@Z
??9RootRecordPtr@@QEBA_NPEBURootRecord@@@Z
??Amxuint128@@QEBA_K_K@Z
??B?$Mprotected_cptr@UmxArray_tag@@VMprotected_mxArray_helper@@@@QEAAPEAUmxArray_tag@@XZ
??B?$Mprotected_cptr@UmxArray_tag@@VMprotected_mxArray_helper@@@@QEBAPEBUmxArray_tag@@XZ
??BRootRecordPtr@@QEBAPEBURootRecord@@XZ
??Bmxuint128@@QEBAIXZ
??Bmxuint128@@QEBA_KXZ
??C?$Mprotected_cptr@UmxArray_tag@@VMprotected_mxArray_helper@@@@QEAAPEAUmxArray_tag@@XZ
??C?$Mprotected_cptr@UmxArray_tag@@VMprotected_mxArray_helper@@@@QEBAPEBUmxArray_tag@@XZ
??CRootRecordPtr@@QEBAPEAURootRecord@@XZ
??DRootRecordPtr@@QEBAPEAURootRecord@@XZ
??Xmxuint128@@QEAAXAEBV0@@Z
??Ymxuint128@@QEAAXAEBV0@@Z
?Unprotect@?$Mprotected_cptr@UmxArray_tag@@VMprotected_mxArray_helper@@@@QEAAPEAUmxArray_tag@@XZ
?Unprotect@Mprotected_mxArray@@QEAAPEAUmxArray_tag@@XZ
?Unprotect_copy@Mprotected_mxArray@@QEAAPEAUmxArray_tag@@XZ
?Unshare@Mprotected_mxArray@@QEAAXXZ
?_complete_opaque_dimensions@mxArray_tag@@AEBAXXZ
?_get_class_id_non_trivial@mxArray_tag@@AEBA?AW4mxClassID@@XZ
?add@mxuint128@@AEAAXAEBV1@@Z
?addBig@mxuint128@@AEAAX_K@Z
?addLtl@mxuint128@@AEAAX_K@Z
?addRRToTable@@YAXAEBVRootRecordPtr@@HPEAX@Z
?call_delete_fn@?$Mprotected_cptr@UmxArray_tag@@VMprotected_mxArray_helper@@@@IEAAXXZ
?char_exception_dispatcher@detail@matrix@@YAXXZ
?copy@Mprotected_mxArray_helper@@CAPEAUmxArray_tag@@PEBU2@@Z
?copy@Mprotected_mxStringUTF16_helper@@CAPEA_WPEB_W@Z
?copy@Mprotected_mxStringUTF8_helper@@CAPEAEPEBE@Z
?copy@Mprotected_mxString_helper@@CAPEADPEBD@Z
?copy@RootRecordPtr@@AEAAXPEAURootRecord@@@Z
?copy_string@matrix@@YA_KPEAD_KPEBUmxArray_tag@@AEBV?$converter@D_W@i18n@fl@@@Z
?copy_wstring@matrix@@YA_KPEA_W_KPEBUmxArray_tag@@@Z
?create@matrix@@YA?AV?$unique_ptr@UmxArray_tag@@UmxDestroy_deleter@detail@matrix@@@boost@@AEBV?$vector@V?$basic_string@DU?$char_traits@D@std@@V?$allocator@D@2@@std@@V?$allocator@V?$basic_string@DU?$char_traits@D@std@@V?$allocator@D@2@@std@@@2@@std@@AEBV?$converter@_WD@i18n@fl@@@Z
?create@matrix@@YA?AV?$unique_ptr@UmxArray_tag@@UmxDestroy_deleter@detail@matrix@@@boost@@AEBV?$vector@V?$basic_string@_WU?$char_traits@_W@std@@V?$allocator@_W@2@@std@@V?$allocator@V?$basic_string@_WU?$char_traits@_W@std@@V?$allocator@_W@2@@std@@@2@@std@@@Z
?create@matrix@@YA?AV?$unique_ptr@UmxArray_tag@@UmxDestroy_deleter@detail@matrix@@@boost@@PEBD_KAEBV?$converter@_WD@i18n@fl@@@Z
?create@matrix@@YA?AV?$unique_ptr@UmxArray_tag@@UmxDestroy_deleter@detail@matrix@@@boost@@PEBUmxArray_tag@@AEBV?$converter@D_W@i18n@fl@@@Z
?create@matrix@@YA?AV?$unique_ptr@UmxArray_tag@@UmxDestroy_deleter@detail@matrix@@@boost@@PEBUmxArray_tag@@AEBV?$converter@_WD@i18n@fl@@@Z
?create@matrix@@YA?AV?$unique_ptr@UmxArray_tag@@UmxDestroy_deleter@detail@matrix@@@boost@@PEB_W_K@Z
?create_c_str@mxArray_tag@@QEBAPEADP6APEAX_K@Z@Z
?create_cell@detail@matrix@@YAPEAUmxArray_tag@@_K0@Z
?create_char@detail@matrix@@YAPEAUmxArray_tag@@_KPEB_K@Z
?create_numeric@detail@matrix@@YAPEAUmxArray_tag@@_K0W4mxClassID@@W4mxComplexity@@HPEAPEBU3@@Z
?create_numeric@detail@matrix@@YAPEAUmxArray_tag@@_KPEB_KW4mxClassID@@W4mxComplexity@@@Z
?create_numeric@detail@matrix@@YAPEAUmxArray_tag@@_KPEB_KW4mxClassID@@W4mxComplexity@@HPEAPEBU3@@Z
?create_sparse@detail@matrix@@YAPEAUmxArray_tag@@_K00W4mxComplexity@@@Z
?create_sparse_logical@detail@matrix@@YAPEAUmxArray_tag@@_K00@Z
?create_sparse_numeric@detail@matrix@@YAPEAUmxArray_tag@@_K00W4mxClassID@@W4mxComplexity@@@Z
?create_struct@detail@matrix@@YAPEAUmxArray_tag@@_K0HPEAPEBD@Z
?create_utf16_c_str@mxArray_tag@@QEBAPEA_WP6APEAX_K@Z@Z
?create_utf8_c_str@mxArray_tag@@QEBAPEAEP6APEAX_K@Z@Z
?deep_copy@detail@matrix@@YAPEAUmxArray_tag@@PEBU3@@Z
?dumpMXArray@@YAXPEAUmxArray_tag@@V?$basic_string@DU?$char_traits@D@std@@V?$allocator@D@2@@std@@_N@Z
?dumpRootRecord@@YAXVRootRecordPtr@@V?$basic_string@DU?$char_traits@D@std@@V?$allocator@D@2@@std@@@Z
?error_maxlhs@detail@matrix@@YAXXZ
?error_maxrhs@detail@matrix@@YAXXZ
?error_minrhs@detail@matrix@@YAXXZ
?free@Mprotected_mxArray_helper@@CAXPEAUmxArray_tag@@@Z
?free@Mprotected_mxStringUTF16_helper@@CAXPEA_W@Z
?free@Mprotected_mxStringUTF8_helper@@CAXPEAE@Z
?free@Mprotected_mxString_helper@@CAXPEAD@Z
?from_matlab@matrix@@YA?AV?$unique_ptr@UmxArray_tag@@UmxDestroy_deleter@detail@matrix@@@boost@@AEBQEAUmxArray_tag@@@Z
?get@?$Mprotected_cptr@UmxArray_tag@@VMprotected_mxArray_helper@@@@QEBAPEAUmxArray_tag@@XZ
?get_array_type@mxArray_tag@@QEBA?AW4mxArrayType@@XZ
?get_attributes@mxArray_tag@@QEBAHXZ
?get_cells@mxArray_tag@@QEBAPEAPEAU1@XZ
?get_chars@mxArray_tag@@QEBAPEA_WXZ
?get_class_id@mxArray_tag@@QEBA?AW4mxClassID@@XZ
?get_complexity_attr@mxArray_tag@@QEBAHXZ
?get_cstr_destination_size@mxArray_tag@@QEBA_KAEBV?$converter@D_W@i18n@fl@@@Z
?get_density_attr@mxArray_tag@@QEBAHXZ
?get_destination_string_size@matrix@@YA_KPEBUmxArray_tag@@AEBV?$converter@D_W@i18n@fl@@@Z
?get_destination_wstring_size@matrix@@YA_KPEBUmxArray_tag@@@Z
?get_dimensions@mxArray_tag@@QEBAPEBHXZ
?get_dimensions@mxArray_tag@@QEBAPEB_KXZ
?get_global_array@mxArray_tag@@QEBAPEAU1@XZ
?get_global_array_data@mxArray_tag@@QEBAPEAXXZ
?get_ir@mxArray_tag@@QEBAPEA_KXZ
?get_jc@mxArray_tag@@QEBAPEA_KXZ
?get_mxchar_ptr_and_len@detail@matrix@@YA_KPEBUmxArray_tag@@AEAPEA_W@Z
?get_nelements_allocated@mxArray_tag@@QEBA_KXZ
?get_number_of_dims@mxArray_tag@@QEBA_KXZ
?get_number_of_elements@mxArray_tag@@QEBA_KXZ
?get_opaque_giblet@mxArray_tag@@QEBAPEAXXZ
?get_opaque_info@mxArray_tag@@QEBAPEAUxxInfo@@XZ
?get_opaque_object_tag@mxArray_tag@@QEBAHXZ
?get_pdata@mxArray_tag@@QEBAPEAXXZ
?get_pimag_data@mxArray_tag@@QEBAPEAXXZ
?get_preallocated@mxArray_tag@@QEBA_NXZ
?get_quater@mxuint128@@AEAA_KH@Z
?get_root_info@mxArray_tag@@QEBAPEAURootRecord@@XZ
?get_shape_attr@mxArray_tag@@QEBAHXZ
?get_string@matrix@@YA?AV?$basic_string@DU?$char_traits@D@std@@V?$allocator@D@2@@std@@PEBUmxArray_tag@@AEBV?$converter@D_W@i18n@fl@@@Z
?get_string_array@matrix@@YA?AV?$vector@V?$basic_string@DU?$char_traits@D@std@@V?$allocator@D@2@@std@@V?$allocator@V?$basic_string@DU?$char_traits@D@std@@V?$allocator@D@2@@std@@@2@@std@@PEBUmxArray_tag@@AEBV?$converter@D_W@i18n@fl@@@Z
?get_string_length@mxArray_tag@@QEBAHXZ
?get_struct_field_info@mxArray_tag@@QEBAPEAUname_index_info@@XZ
?get_struct_fields@mxArray_tag@@QEBAPEAPEAU1@XZ
?get_struct_object_chksum@mxArray_tag@@QEBAIXZ
?get_struct_object_classname@mxArray_tag@@QEBAPEBDXZ
?get_struct_object_tag@mxArray_tag@@QEBAHXZ
?get_structure_info@mxArray_tag@@QEBAPEAUstruct_info@1@XZ
?get_type@mxArray_tag@@QEBAHXZ
?get_ustring@matrix@@YA?AV?$basic_string@_WU?$char_traits@_W@std@@V?$allocator@_W@2@@std@@PEBUmxArray_tag@@@Z
?get_ustring_array@matrix@@YA?AV?$vector@V?$basic_string@_WU?$char_traits@_W@std@@V?$allocator@_W@2@@std@@V?$allocator@V?$basic_string@_WU?$char_traits@_W@std@@V?$allocator@_W@2@@std@@@2@@std@@PEBUmxArray_tag@@@Z
?get_wcstr_destination_size@mxArray_tag@@QEBA_KXZ
?get_wstring@matrix@@YA?AV?$basic_string@_WU?$char_traits@_W@std@@V?$allocator@_W@2@@std@@PEBUmxArray_tag@@@Z
?get_wstring_array@matrix@@YA?AV?$vector@V?$basic_string@_WU?$char_traits@_W@std@@V?$allocator@_W@2@@std@@V?$allocator@V?$basic_string@_WU?$char_traits@_W@std@@V?$allocator@_W@2@@std@@@2@@std@@PEBUmxArray_tag@@@Z
?has_structure_info_if_needed@mxArray_tag@@QEBA_NXZ
?inc_ref@mxArray_tag@@QEBAXXZ
?init_application_init@detail@matrix@@YA_NH@Z
?init_ldipool@@YA_NH@Z
?init_mpipool@@YA_NH@Z
?init_pathtokenpool@@YA_NH@Z
?init_pool@@YA_NH@Z
?init_rrpool@@YA_NH@Z
?init_spipool@@YA_NH@Z
?isEqual@mxuint128@@QEBA_NAEBV1@@Z
?isOverflow@mxuint128@@QEBA_NXZ
?is_char@mxArray_tag@@QEBA_NXZ
?is_indexing_opaque@mxArray_tag@@QEBA_NXZ
?is_opaque_heterogeneous@mxArray_tag@@QEBA_NXZ
?is_private_data@mxArray_tag@@QEBA_NXZ
?is_share_private_data@mxArray_tag@@QEBA_NXZ
?is_shared@mxArray_tag@@QEBA_NXZ
?is_struct@mxArray_tag@@QEBA_NXZ
?miGetGzipString@@YAPEAUgzipString_tag@@PEAUmiStreamRec_tag@@@Z
?miGetMatrixHeader_700@@YAHPEAUmiStreamRec_tag@@PEAUmiItem_tag@@_KH@Z
?miGetSubsystemData@@YAPEBUmxArray_tag@@PEAUmiStreamRec_tag@@@Z
?miPutItemAtOffsetWrapper_700@@YAHPEAUmiStreamRec_tag@@PEAUmiItem_tag@@_K@Z
?multiply@mxuint128@@AEAAXAEBV1@@Z
?mxAddParentRoot@@YAXAEBVRootRecordPtr@@0@Z
?mxAddRootContainer@@YAXPEAUmxArray_tag@@0@Z
?mxAreFunctionHandleConstructorsRegistered@@YA_NXZ
?mxArgMustBeIndices@@YAXPEBUmxArray_tag@@_KPEA_K@Z
?mxArrayToStdString@@YA?AV?$basic_string@DU?$char_traits@D@std@@V?$allocator@D@2@@std@@PEBUmxArray_tag@@@Z
?mxArrayToUTF8StdString@@YA?AV?$basic_string@DU?$char_traits@D@std@@V?$allocator@D@2@@std@@PEBUmxArray_tag@@@Z
?mxCallViaSimpleFunctionHandle@@YAXPEAXHQEAPEAUmxArray_tag@@H1@Z
?mxCell2struct@@YAXHQEAPEAUmxArray_tag@@H0@Z
?mxCellConstructorFcn@@YAXHQEAPEAUmxArray_tag@@H0@Z
?mxCheckDim@@YAHQEAHH_K@Z
?mxCheckDim@@YA_KQEA_K_K1@Z
?mxCheckDim_700@@YAHQEAHH_K@Z
?mxCheckDim_nothrow@@YA_NQEBHH_KPEAH@Z
?mxCheckDim_nothrow@@YA_NQEB_K_K1PEA_K@Z
?mxCheckIndex@@YA_KN@Z
?mxCheckMN@@YAHHH_K@Z
?mxCheckMN@@YA_KNN_K@Z
?mxCheckMN@@YA_K_K00@Z
?mxCheckMN_700@@YAHNN_K@Z
?mxCheckMN_nothrow@@YA_NHH_KPEAH@Z
?mxCheckMN_nothrow@@YA_NNN_KPEA_K@Z
?mxCheckMN_nothrow@@YA_N_K00PEA_K@Z
?mxClassIDFromClassName@@YA?AW4mxClassID@@PEBD@Z
?mxClearErrorState@@YAXPEAUmxErrorState@@@Z
?mxClearScalarDoubleFlag@@YAXPEAUmxArray_tag@@@Z
?mxColonop@@YAPEAUmxArray_tag@@NNNW4mxClassID@@@Z
?mxConvertToIndex_700@@YAHPEAPEAUmxArray_tag@@HHPEAH1PEAPEAH@Z
?mxCopyString@@YAPEADPEBDP6APEAX_K@Z@Z
?mxCopyStringUTF16@@YAPEA_WPEB_WP6APEAX_K@Z@Z
?mxCopyStringUTF8@@YAPEAEPEBEP6APEAX_K@Z@Z
?mxCreateArrayFromTypeAttr@@YAPEAUmxArray_tag@@W4mxClassID@@W4mxArray_attributes@@@Z
?mxCreateCStrArrayFromMatrix@@YAPEAPEADPEBUmxArray_tag@@P6APEAX_K@ZP6AXPEAX@Z@Z
?mxCreateCStrFromArray@@YAPEADPEBUmxArray_tag@@P6APEAX_K@Z@Z
?mxCreateCharMatrixFromStrings_UTF8_700@@YAPEAUmxArray_tag@@HPEAPEBE@Z
?mxCreateCharMatrixFromStrings_safe@@YAPEAUmxArray_tag@@_KPEAPEBD@Z
?mxCreateColonObj@@YAPEAUmxArray_tag@@NNN@Z
?mxCreateColonObject@@YAPEAUmxArray_tag@@NNNW4mxClassID@@@Z
?mxCreateDoubleMatrixWithReuse@@YAPEAUmxArray_tag@@_K0W4mxComplexity@@HPEAPEBU1@@Z
?mxCreateFunctionHandle@@YAPEAUmxArray_tag@@P6AXPEAXHQEAPEAU1@H1@Z0P6AX0@Z3@Z
?mxCreateIntColonObject@@YAPEAUmxArray_tag@@_J00W4mxClassID@@@Z
?mxCreateIntColonObject@@YAPEAUmxArray_tag@@_JN0W4mxClassID@@@Z
?mxCreateIntColonObject@@YAPEAUmxArray_tag@@_K00W4mxClassID@@@Z
?mxCreateIntColonObject@@YAPEAUmxArray_tag@@_KN0W4mxClassID@@@Z
?mxCreateLogicalArrayWithReuse@@YAPEAUmxArray_tag@@_KPEB_KHPEAPEBU1@@Z
?mxCreateLogicalMatrixWithReuse@@YAPEAUmxArray_tag@@_K0HPEAPEBU1@@Z
?mxCreateNumericArrayWithReuse@@YAPEAUmxArray_tag@@_KPEB_KW4mxClassID@@W4mxComplexity@@HPEAPEBU1@@Z
?mxCreateNumericMatrixWithReuse@@YAPEAUmxArray_tag@@_K0W4mxClassID@@W4mxComplexity@@HPEAPEBU1@@Z
?mxCreateNumericScalar@@YAPEAUmxArray_tag@@W4mxClassID@@W4mxComplexity@@@Z
?mxCreateRootRecord@@YA?AVRootRecordPtr@@XZ
?mxCreateSimpleFunctionHandle@@YAPEAUmxArray_tag@@P6AXHQEAPEAU1@H0@Z@Z
?mxCreateStackStruct@@YAPEAUmxArray_tag@@_K@Z
?mxCreateStringFromNChars_UTF16_700@@YAPEAUmxArray_tag@@PEB_WH@Z
?mxCreateStringFromNChars_UTF8_700@@YAPEAUmxArray_tag@@PEBEH@Z
?mxCreateUTF16CStrArrayFromMatrix@@YAPEAPEA_WPEBUmxArray_tag@@P6APEAX_K@ZP6AXPEAX@Z@Z
?mxCreateUTF16CStrFromArray@@YAPEA_WPEBUmxArray_tag@@P6APEAX_K@Z@Z
?mxCreateUTF8CStrArrayFromMatrix@@YAPEAPEAEPEBUmxArray_tag@@P6APEAX_K@ZP6AXPEAX@Z@Z
?mxCreateUTF8CStrFromArray@@YAPEAEPEBUmxArray_tag@@P6APEAX_K@Z@Z
?mxCreateUninitDoubleMatrix@@YAPEAUmxArray_tag@@H_K0HPEAPEBU1@@Z
?mxCreateUninitNumericArray@@YAPEAUmxArray_tag@@_KPEA_KW4mxClassID@@W4mxComplexity@@HPEAPEBU1@@Z
?mxCreateUninitNumericMatrix@@YAPEAUmxArray_tag@@_K0W4mxClassID@@HHPEAPEBU1@@Z
?mxDoesArrayContainObjects@@YA_NPEAUmxArray_tag@@@Z
?mxDumpFromRoot@@YAXVRootRecordPtr@@@Z
?mxErrMsg@@YAXW4mxErrorMessage@@@Z
?mxErrMsgId@@YAXAEBV?$basic_string@DU?$char_traits@D@std@@V?$allocator@D@2@@std@@AEBVBaseMsgID@resource_core@@@Z
?mxErrMsgId@@YAXAEBVBaseMsgID@resource_core@@@Z
?mxErrMsgId@@YAXAEBVnomem@legacy_two_part@MATLAB@@@Z
?mxErrMsgIdAndTxt@@YAXPEBD0ZZ
?mxErrorCleanup@@YAXXZ
?mxExpandIntColonArray@@YAPEAUmxArray_tag@@_J00@Z
?mxExpandIntColonArray@@YAPEAUmxArray_tag@@_JN0@Z
?mxExpandIntColonArray@@YAPEAUmxArray_tag@@_K00@Z
?mxExpandIntColonArray@@YAPEAUmxArray_tag@@_KN0@Z
?mxFcnUndefinedForClass@@YAXPEBD0@Z
?mxFevalFunctionHandle@@YAXHQEAPEAUmxArray_tag@@H0@Z
?mxFunctionHandleFromString@@YAXPEAUmxArray_tag@@PEAUfunction_handle_tag@@PEBD@Z
?mxFunctionHandleRegistration@@YA_NPEBUfunction_handle_table@@@Z
?mxFunctionHandleToString@@YAPEBDPEAUfunction_handle_tag@@@Z
?mxFunctionHandleToStruc@@YAPEAUmxArray_tag@@PEAUfunction_handle_tag@@_N@Z
?mxGetArrayType@@YA?AW4mxArrayType@@PEBUmxArray_tag@@@Z
?mxGetCellsOffset@@YA_KXZ
?mxGetColonArgValues@@YAXHPEANW4mxClassID@@@Z
?mxGetColonArgs@@YA?AW4mxClassID@@HQEAPEAUmxArray_tag@@PEAN@Z
?mxGetColonObjValues@@YAXPEBUmxArray_tag@@AEA_J11AEAN@Z
?mxGetColonObjValues@@YAXPEBUmxArray_tag@@AEA_K11AEAN@Z
?mxGetColonObjValues@@YAXPEBUmxArray_tag@@PEAN@Z
?mxGetDimMOffset@@YA_KXZ
?mxGetDimNOffset@@YA_KXZ
?mxGetDims@@YA_K_KQEAPEAUmxArray_tag@@PEA_K2@Z
?mxGetDims_700@@YAHHQEAPEAUmxArray_tag@@PEAH1@Z
?mxGetElementSizeofClassID@@YA_KW4mxClassID@@@Z
?mxGetErrorMessageEnumName@@YAPEBDW4mxErrorMessage@@@Z
?mxGetErrorMode@@YA?AW4mxErrorMode@@XZ
?mxGetErrorState@@YAPEAUmxErrorState@@XZ
?mxGetErrorTableEntry@@YAPEBDW4mxErrorMessage@@@Z
?mxGetFieldNames@@YAPEAPEBDPEBUmxArray_tag@@@Z
?mxGetInfo@@YAPEAUxxInfo@@PEBUmxArray_tag@@@Z
?mxGetIsReferencedByOldSystem@@YA_NPEBUmxArray_tag@@@Z
?mxGetIsRootOnArray@@YA_NPEAUmxArray_tag@@@Z
?mxGetLinkOffset@@YA_KXZ
?mxGetMaxNumberOfBytes@@YA_KXZ
?mxGetMaxNumberOfElements@@YA_KXZ
?mxGetMethodFullPath@@YAXPEAUmxArray_tag@@PEAD@Z
?mxGetNumNonZeroEl@@YA_KPEBUmxArray_tag@@@Z
?mxGetNumberOfBytes@@YA_NPEBUmxArray_tag@@PEA_K@Z
?mxGetObjectTagIndex@@YAHPEBUmxArray_tag@@@Z
?mxGetOpaqueObjectTagIndex@@YAHPEBUmxArray_tag@@@Z
?mxGetOpaqueObjectTagOffset@@YA_KXZ
?mxGetOverAllocationInfo@@YAXPEBUmxArray_tag@@PEA_NPEA_K12@Z
?mxGetOverAllocationStrategy@@YA_NPEA_K00@Z
?mxGetPdataOffset@@YA_KXZ
?mxGetPropertyShared@@YAPEAUmxArray_tag@@PEBU1@_KPEBD@Z
?mxGetReferenceCountOffset@@YA_KXZ
?mxGetReshapeDims_700@@YAPEAH_NQEAPEBUmxArray_tag@@HPEBU1@PEAH@Z
?mxGetRootRecordForArray@@YA?AVRootRecordPtr@@PEBUmxArray_tag@@@Z
?mxGetScopeOffset@@YA_KXZ
?mxHandleAmbiguousArrayGrowth@@YAXPEBD@Z
?mxHandleSubscriptError@@YAXPEBDHPEB_K0QEBNH@Z
?mxHandleSubscriptError@@YAXW4mxSubscriptErrorCode@@@Z
?mxHasCycleDetectionContents@@YA_NPEBUmxArray_tag@@@Z
?mxHasParents@@YA_NVRootRecordPtr@@@Z
?mxHasRootRecord@@YA_NPEBUmxArray_tag@@@Z
?mxIncRefCount@@YAXPEBUmxArray_tag@@@Z
?mxInitErrorState@@YAXPEAUmxErrorState@@@Z
?mxInitializeSimpleFunctionHandle@@YAXPEAUfunction_handle_tag@@P6AXHQEAPEAUmxArray_tag@@H1@Z@Z
?mxInvalidateDeadPath@@YAXPEAUmxArray_tag@@@Z
?mxInvokeFunctionHandle@@YAXPEAUmxArray_tag@@HQEAPEAU1@H1@Z
?mxIsDataPrivate@@YA_NPEBUmxArray_tag@@@Z
?mxIsHeterogeneousArray@@YA_NPEBUmxArray_tag@@@Z
?mxIsIndex@@YA_NPEBUmxArray_tag@@@Z
?mxIsNumericArrayType@@YA_NW4mxArrayType@@@Z
?mxIsParentRoot@@YA_NAEBVRootRecordPtr@@0@Z
?mxIsParentRootGeneralized@@YA_NVRootRecordPtr@@0@Z
?mxIsPreallocated@@YA_NPEAUmxArray_tag@@@Z
?mxIsRoot@@YA_NVRootRecordPtr@@@Z
?mxIsRootRecordMarkedForCycleDetection@@YA_NPEAUmxArray_tag@@@Z
?mxIsRooted@@YA_NAEBVRootRecordPtr@@PEA_N@Z
?mxIsSameSize@@YA_NPEBUmxArray_tag@@0@Z
?mxIsScalarDoubleFlagSet@@YA_NPEBUmxArray_tag@@@Z
?mxIsShareDataPrivate@@YA_NPEBUmxArray_tag@@@Z
?mxIsThereAnUnmarkedParent@@YA_NAEAVRootRecordPtr@@@Z
?mxIsValidFirstCharInMatName@@YA_ND@Z
?mxIsValidMatName@@YA_NAEBV?$basic_string@DU?$char_traits@D@std@@V?$allocator@D@2@@std@@@Z
?mxIsValidMatName@@YA_NAEBV?$basic_string@_WU?$char_traits@_W@std@@V?$allocator@_W@2@@std@@@Z
?mxIsValidMatName@@YA_NQEBD@Z
?mxIsValidMatNameCount@@YA_KQEBD@Z
?mxIsValidMatNamePart@@YA_NQEBD_K@Z
?mxIsValidMatNamePartCount@@YA_KQEBD_K@Z
?mxIsValidSubsequentCharInMatName@@YA_ND@Z
?mxMarkImagData@@YAXPEAUmxArray_tag@@@Z
?mxMarkRootRecordForCycleDetection@@YAXAEAVRootRecordPtr@@@Z
?mxMarkRootRecordForCycleDetection@@YAXPEAUmxArray_tag@@@Z
?mxMatch2DIndicesForIndexedAssignment@@YAHPEA_K0_K1_N2@Z
?mxMatch2DIndicesForIndexedAssignment_700@@YAHPEAH0HH@Z
?mxNeedsRootTracking@@YA_NPEBUmxArray_tag@@@Z
?mxNumParents@@YA_KVRootRecordPtr@@@Z
?mxParentArrayToRoot@@YAXPEAUmxArray_tag@@AEBVRootRecordPtr@@@Z
?mxParentRootToArray@@YAXAEBVRootRecordPtr@@PEAUmxArray_tag@@@Z
?mxPrepareMemberValueForContainment@@YAPEAUmxArray_tag@@PEAU1@@Z
?mxPreparePropertyValueForContainment@@YAPEAUmxArray_tag@@PEAU1@@Z
?mxReInitArray2Type@@YAXPEAUmxArray_tag@@W4mxArrayType@@@Z
?mxRecoverArrayStorage@@YA_NXZ
?mxRegisterFunctionHandleConstructors@@YAXV?$function@$$A6AXPEAUmxArray_tag@@PEAUfunction_handle_tag@@PEBD@Z@boost@@V?$function@$$A6AXPEAUmxArray_tag@@PEAUfunction_handle_tag@@0PEAPEBD@Z@2@PEBD@Z
?mxRegisterGenericInterpreterCall@@YAXP6APEAXHPEAX0V?$basic_string@DU?$char_traits@D@std@@V?$allocator@D@2@@std@@@Z@Z
?mxRegisterGenericMCOSCall@@YAXP6APEAXHPEAX0V?$basic_string@DU?$char_traits@D@std@@V?$allocator@D@2@@std@@@Z@Z
?mxReleaseRootRecord@@YAXAEBVRootRecordPtr@@@Z
?mxRemoveParentRoot@@YAXAEBVRootRecordPtr@@0@Z
?mxResizeArray@@YAXPEAUmxArray_tag@@_KPEA_K@Z
?mxResizeArray_700@@YAXPEAUmxArray_tag@@HPEAH@Z
?mxResizeDoubleMatrix@@YAXPEAUmxArray_tag@@_K111_N@Z
?mxResizeDoubleVector@@YA_NPEAUmxArray_tag@@_K11_N@Z
?mxSetArrayType@@YAXPEAUmxArray_tag@@W4mxArrayType@@@Z
?mxSetDataPrivateFlag@@YAXPEAUmxArray_tag@@_N@Z
?mxSetDeadPathEnabled@@YAXVRootRecordPtr@@_N@Z
?mxSetErrmsgPrefixFcn@@YAP6AXPEBDPEADH@ZP6AX01H@Z@Z
?mxSetErrorMode@@YA?AW4mxErrorMode@@W41@@Z
?mxSetErrorOn@@YAXXZ
?mxSetErrorState@@YAXPEAUmxErrorState@@@Z
?mxSetHeterogeneous@@YAXPEAUmxArray_tag@@_N@Z
?mxSetIsReferencedByOldSystem@@YAXPEAUmxArray_tag@@_N@Z
?mxSetIsRoot@@YAXAEBVRootRecordPtr@@_N@Z
?mxSetIsRootOnArray@@YA_NPEAUmxArray_tag@@_N@Z
?mxSetLastErrIdAndMsg@@YAXPEBD0@Z
?mxSetLastErrIdAndMsgAndStack@@YAXPEBD0PEBUmxArray_tag@@@Z
?mxSetObjectTagIndex@@YAXPEAUmxArray_tag@@H@Z
?mxSetOpaqueObjectTagIndex@@YAXPEAUmxArray_tag@@H@Z
?mxSetOverAllocationStrategy@@YAX_N_K11@Z
?mxSetOwnerBeingDestroyed@@YAXVRootRecordPtr@@@Z
?mxSetParentRoot@@YAXVRootRecordPtr@@0@Z
?mxSetPropertyShared@@YAXPEAUmxArray_tag@@_KPEBDPEBU1@@Z
?mxSetRootRecordHasCycleDetectionContents@@YAXAEAVRootRecordPtr@@@Z
?mxSetRootRecordHasMCOSObjectContents@@YAXAEAVRootRecordPtr@@@Z
?mxSetScalarDoubleFlag@@YAXPEAUmxArray_tag@@@Z
?mxSetScalarDoubleFlagIfAppropiate@@YAXPEAUmxArray_tag@@@Z
?mxSetShareDataPrivateFlag@@YAXPEAUmxArray_tag@@_N@Z
?mxSetTraceRoot@@YAX_N@Z
?mxSetWarningMessageHandler@@YAP6AXPEBD@ZP6AX0@Z@Z
?mxShrinkArrayDataToFit@@YAXPEAUmxArray_tag@@@Z
?mxShrinkArrayNamesToFit@@YAXPEAUmxArray_tag@@@Z
?mxSignedIndexColonop@@YAPEA_JNNNPEA_K@Z
?mxSimpleErrMsgIdAndTxt@@YAXPEBD0ZZ
?mxStruct2cell@@YAXHQEAPEAUmxArray_tag@@H0@Z
?mxStructureConversionFcn@@YAXHQEAPEAUmxArray_tag@@H0@Z
?mxSubscriptedAssignmentWithFiller@@YAPEAUmxArray_tag@@PEAU1@_KQEBQEBU1@PEBU1@0_N@Z
?mxSwapErrorState@@YAXPEAPEAUmxErrorState@@@Z
?mxTruncateMatName@@YA_NAEAV?$basic_string@DU?$char_traits@D@std@@V?$allocator@D@2@@std@@@Z
?mxTruncateMatName@@YA_NPEAD@Z
?mxUnmarkRootRecordForCycleDetection@@YAXAEAVRootRecordPtr@@@Z
?mxUnmarkRootRecordForCycleDetection@@YAXPEAUmxArray_tag@@@Z
?mxUnparentRootFromArray@@YAXVRootRecordPtr@@PEBUmxArray_tag@@@Z
?mxUnrootArray@@YAXPEAUmxArray_tag@@@Z
?mxVisitRootRecords@@YAXVRootRecordPtr@@PEAVRootRecordVisitor@@@Z
?mxWarningIdAndMsg@@YAXPEBDW4mxErrorMessage@@@Z
?mxWarningMsgId@@YAXAEBVBaseMsgID@resource_core@@@Z
?mxWarningMsgIdAndTxt@@YAXPEBD0ZZ
?mxWarningMsgIdAndTxtNoLog@@YA_NPEBD0ZZ
?mxWarningMsgTxt@@YAXPEBDZZ
?myLocalize@Mprotected_mxArray@@AEAAXXZ
?niGetPreallocated@@YA_NPEAX@Z
?recursive_mxGetNumberOfBytes@@YA_NPEBUmxArray_tag@@PEA_K@Z
?setOverflow@mxuint128@@QEAAX_N@Z
?set_cells@mxArray_tag@@QEAAXPEAPEAU1@_N@Z
?set_cells_untrusted@mxArray_tag@@QEAAXPEAPEAU1@@Z
?set_global_array@mxArray_tag@@QEAAXPEAU1@@Z
?set_global_array_data@mxArray_tag@@QEAAXPEAX@Z
?set_ir@mxArray_tag@@QEAAXPEA_K@Z
?set_ir_untrusted@mxArray_tag@@QEAAXPEA_K@Z
?set_jc@mxArray_tag@@QEAAXPEA_K@Z
?set_jc_untrusted@mxArray_tag@@QEAAXPEA_K@Z
?set_nelements_allocated@mxArray_tag@@QEAAX_K@Z
?set_opaque_giblet@mxArray_tag@@QEAAXPEAX@Z
?set_opaque_heterogeneous@mxArray_tag@@QEAAX_N@Z
?set_opaque_info@mxArray_tag@@QEAAXPEAUxxInfo@@@Z
?set_opaque_object_tag@mxArray_tag@@QEAAXH@Z
?set_pdata@mxArray_tag@@QEAAXPEAX_N@Z
?set_pdata_untrusted@mxArray_tag@@QEAAXPEAX@Z
?set_pimag_data@mxArray_tag@@QEAAXPEAX_N@Z
?set_pimag_data_untrusted@mxArray_tag@@QEAAXPEAX@Z
?set_preallocated@mxArray_tag@@QEAAX_N@Z
?set_private_data@mxArray_tag@@QEAAX_N@Z
?set_root_info@mxArray_tag@@QEAAXPEAURootRecord@@@Z
?set_share_private_data@mxArray_tag@@QEAAX_N@Z
?set_struct_field_info@mxArray_tag@@QEAAXPEAUname_index_info@@@Z
?set_struct_fields@mxArray_tag@@QEAAXPEAPEAU1@_N@Z
?set_struct_fields_untrusted@mxArray_tag@@QEAAXPEAPEAU1@@Z
?set_struct_object_chksum@mxArray_tag@@QEAAXI@Z
?set_struct_object_classname@mxArray_tag@@QEAAXPEBD@Z
?set_struct_object_tag@mxArray_tag@@QEAAXH@Z
?set_structure_info@mxArray_tag@@QEAAXPEAUstruct_info@1@@Z
?shared_copy@detail@matrix@@YAPEAUmxArray_tag@@PEBU3@@Z
?shift_quater@mxuint128@@AEAA_KXZ
?toString@Mprotected_mxStringUTF16_helper@@CAPEA_WPEBUmxArray_tag@@@Z
?toString@Mprotected_mxStringUTF8_helper@@CAPEAEPEBUmxArray_tag@@@Z
?toString@Mprotected_mxString_helper@@CAPEADPEBUmxArray_tag@@@Z
?to_cstr@mxArray_tag@@QEBA_KPEAD_KAEBV?$converter@D_W@i18n@fl@@@Z
?to_string@mxArray_tag@@QEBA?AV?$basic_string@DU?$char_traits@D@std@@V?$allocator@D@2@@std@@AEBV?$converter@D_W@i18n@fl@@@Z
?to_string_array@mxArray_tag@@QEBA?AV?$vector@V?$basic_string@DU?$char_traits@D@std@@V?$allocator@D@2@@std@@V?$allocator@V?$basic_string@DU?$char_traits@D@std@@V?$allocator@D@2@@std@@@2@@std@@AEBV?$converter@D_W@i18n@fl@@@Z
?to_string_legacy@mxArray_tag@@QEBA?AV?$basic_string@DU?$char_traits@D@std@@V?$allocator@D@2@@std@@XZ
?to_ustring@mxArray_tag@@QEBA?AV?$basic_string@_WU?$char_traits@_W@std@@V?$allocator@_W@2@@std@@XZ
?to_ustring_array@mxArray_tag@@QEBA?AV?$vector@V?$basic_string@_WU?$char_traits@_W@std@@V?$allocator@_W@2@@std@@V?$allocator@V?$basic_string@_WU?$char_traits@_W@std@@V?$allocator@_W@2@@std@@@2@@std@@XZ
?to_ustring_array_from_uint8@mxArray_tag@@QEBA?AV?$vector@V?$basic_string@_WU?$char_traits@_W@std@@V?$allocator@_W@2@@std@@V?$allocator@V?$basic_string@_WU?$char_traits@_W@std@@V?$allocator@_W@2@@std@@@2@@std@@AEBV?$converter@_WD@i18n@fl@@@Z
?to_utf8_string@mxArray_tag@@QEBA?AV?$basic_string@DU?$char_traits@D@std@@V?$allocator@D@2@@std@@XZ
?to_wcstr@mxArray_tag@@QEBA_KPEA_W_K@Z
?to_wstring@mxArray_tag@@QEBA?AV?$basic_string@_WU?$char_traits@_W@std@@V?$allocator@_W@2@@std@@XZ
?to_wstring_array@mxArray_tag@@QEBA?AV?$vector@V?$basic_string@_WU?$char_traits@_W@std@@V?$allocator@_W@2@@std@@V?$allocator@V?$basic_string@_WU?$char_traits@_W@std@@V?$allocator@_W@2@@std@@@2@@std@@XZ
?try_nonrecursive_mxGetNumberOfBytes@@YA_NPEBUmxArray_tag@@PEA_K@Z
?val2str@mxuint128@@QEBAXAEAV?$basic_string@DU?$char_traits@D@std@@V?$allocator@D@2@@std@@@Z
?visitRRTable@@YAXPEAVRRTableVisitor@@@Z
MXADDFIELD
MXCALCSINGLESUBSCRIPT
MXCALCSINGLESUBSCRIPT700
MXCALCSINGLESUBSCRIPT730
MXCALLOC
MXCALLOC700
MXCALLOC730
MXCLASSIDFROMCLASSNAME
MXCOPYCHARACTERTOPTR
MXCOPYCHARACTERTOPTR700
MXCOPYCHARACTERTOPTR730
MXCOPYCOMPLEX16TOPTR
MXCOPYCOMPLEX16TOPTR700
MXCOPYCOMPLEX16TOPTR730
MXCOPYCOMPLEX8TOPTR
MXCOPYCOMPLEX8TOPTR700
MXCOPYCOMPLEX8TOPTR730
MXCOPYINTEGER1TOPTR
MXCOPYINTEGER1TOPTR700
MXCOPYINTEGER1TOPTR730
MXCOPYINTEGER2TOPTR
MXCOPYINTEGER2TOPTR700
MXCOPYINTEGER2TOPTR730
MXCOPYINTEGER4TOPTR
MXCOPYINTEGER4TOPTR700
MXCOPYINTEGER4TOPTR730
MXCOPYINTEGER8TOPTR
MXCOPYINTEGER8TOPTR700
MXCOPYINTEGER8TOPTR730
MXCOPYMWINDEXTOPTR
MXCOPYMWINDEXTOPTR700
MXCOPYMWINDEXTOPTR730
MXCOPYPTRTOCHARACTER
MXCOPYPTRTOCHARACTER700
MXCOPYPTRTOCHARACTER730
MXCOPYPTRTOCOMPLEX16
MXCOPYPTRTOCOMPLEX16700
MXCOPYPTRTOCOMPLEX16730
MXCOPYPTRTOCOMPLEX8
MXCOPYPTRTOCOMPLEX8700
MXCOPYPTRTOCOMPLEX8730
MXCOPYPTRTOINTEGER1
MXCOPYPTRTOINTEGER1700
MXCOPYPTRTOINTEGER1730
MXCOPYPTRTOINTEGER2
MXCOPYPTRTOINTEGER2700
MXCOPYPTRTOINTEGER2730
MXCOPYPTRTOINTEGER4
MXCOPYPTRTOINTEGER4700
MXCOPYPTRTOINTEGER4730
MXCOPYPTRTOINTEGER8
MXCOPYPTRTOINTEGER8700
MXCOPYPTRTOINTEGER8730
MXCOPYPTRTOMWINDEX
MXCOPYPTRTOMWINDEX700
MXCOPYPTRTOMWINDEX730
MXCOPYPTRTOPTRARRAY
MXCOPYPTRTOPTRARRAY700
MXCOPYPTRTOPTRARRAY730
MXCOPYPTRTOREAL4
MXCOPYPTRTOREAL4700
MXCOPYPTRTOREAL4730
MXCOPYPTRTOREAL8
MXCOPYPTRTOREAL8700
MXCOPYPTRTOREAL8730
MXCOPYREAL4TOPTR
MXCOPYREAL4TOPTR700
MXCOPYREAL4TOPTR730
MXCOPYREAL8TOPTR
MXCOPYREAL8TOPTR700
MXCOPYREAL8TOPTR730
MXCREATECELLARRAY
MXCREATECELLARRAY700
MXCREATECELLARRAY730
MXCREATECELLMATRIX
MXCREATECELLMATRIX700
MXCREATECELLMATRIX730
MXCREATECHARARRAY
MXCREATECHARARRAY700
MXCREATECHARARRAY730
MXCREATECHARMATRIXFROMSTRINGS
MXCREATECHARMATRIXFROMSTRINGS700
MXCREATECHARMATRIXFROMSTRINGS730
MXCREATECHARMATRIXFROMSTRS700
MXCREATECHARMATRIXFROMSTRS730
MXCREATEDOUBLEMATRIX
MXCREATEDOUBLEMATRIX700
MXCREATEDOUBLEMATRIX730
MXCREATEDOUBLESCALAR
MXCREATEFULL
MXCREATENUMERICARRAY
MXCREATENUMERICARRAY700
MXCREATENUMERICARRAY730
MXCREATENUMERICMATRIX
MXCREATENUMERICMATRIX700
MXCREATENUMERICMATRIX730
MXCREATESPARSE
MXCREATESPARSE700
MXCREATESPARSE730
MXCREATESTRING
MXCREATESTRUCTARRAY
MXCREATESTRUCTARRAY700
MXCREATESTRUCTARRAY730
MXCREATESTRUCTMATRIX
MXCREATESTRUCTMATRIX700
MXCREATESTRUCTMATRIX730
MXDESTROYARRAY
MXDUPLICATEARRAY
MXFREE
MXGETCELL
MXGETCELL700
MXGETCELL730
MXGETCLASSID
MXGETCLASSNAME
MXGETDATA
MXGETDIMENSIONS
MXGETDIMENSIONS700
MXGETDIMENSIONS730
MXGETELEMENTSIZE
MXGETELEMENTSIZE700
MXGETELEMENTSIZE730
MXGETEPS
MXGETFIELD
MXGETFIELD700
MXGETFIELD730
MXGETFIELDBYNUMBER
MXGETFIELDBYNUMBER700
MXGETFIELDBYNUMBER730
MXGETFIELDNAMEBYNUMBER
MXGETFIELDNUMBER
MXGETIMAGDATA
MXGETINF
MXGETIR
MXGETIR700
MXGETIR730
MXGETJC
MXGETJC700
MXGETJC730
MXGETM
MXGETM700
MXGETM730
MXGETN
MXGETN700
MXGETN730
MXGETNAN
MXGETNUMBEROFDIMENSIONS
MXGETNUMBEROFDIMENSIONS700
MXGETNUMBEROFDIMENSIONS730
MXGETNUMBEROFELEMENTS
MXGETNUMBEROFELEMENTS700
MXGETNUMBEROFELEMENTS730
MXGETNUMBEROFFIELDS
MXGETNZMAX
MXGETNZMAX700
MXGETNZMAX730
MXGETPI
MXGETPR
MXGETPROPERTY
MXGETPROPERTY700
MXGETPROPERTY730
MXGETSCALAR
MXGETSTRING
MXGETSTRING700
MXGETSTRING730
MXISCELL
MXISCHAR
MXISCLASS
MXISCOMPLEX
MXISDOUBLE
MXISEMPTY
MXISFINITE
MXISFROMGLOBALWS
MXISINF
MXISINT16
MXISINT32
MXISINT64
MXISINT8
MXISLOGICAL
MXISNAN
MXISNUMERIC
MXISSINGLE
MXISSPARSE
MXISSTRUCT
MXISUINT16
MXISUINT32
MXISUINT64
MXISUINT8
MXMALLOC
MXMALLOC700
MXMALLOC730
MXREALLOC
MXREALLOC700
MXREALLOC730
MXREMOVEFIELD
MXSETCELL
MXSETCELL700
MXSETCELL730
MXSETDATA
MXSETDIMENSIONS
MXSETDIMENSIONS700
MXSETDIMENSIONS730
MXSETFIELD
MXSETFIELD700
MXSETFIELD730
MXSETFIELDBYNUMBER
MXSETFIELDBYNUMBER700
MXSETFIELDBYNUMBER730
MXSETIMAGDATA
MXSETIR
MXSETIR700
MXSETIR730
MXSETJC
MXSETJC700
MXSETJC730
MXSETM
MXSETM700
MXSETM730
MXSETN
MXSETN700
MXSETN730
MXSETNZMAX
MXSETNZMAX700
MXSETNZMAX730
MXSETPI
MXSETPR
MXSETPROPERTY
MXSETPROPERTY700
MXSETPROPERTY730
QueryMLFcnTable_libmx
QueryMLFcns_libmx
miCreateBufferStream
miCreateFileStream
miCreateSequentialStream
miDisposeBufferStream
miDisposeFileStream
miFseek64
miFtell64
miGetCurrentItem
miGetItem
miGetMatrixHeader
miGetMatrixHeaderAtCurrentOffset
miGetStreamOffset
miGetStreamPtr
miIsMATVariableCompressionEnabled
miPutItem
miPutItemAtCurrentOffsetWrapper
miPutItemAtOffsetWrapper
miResetBufferStream
miSetStreamOffset
miSetStreamPtr
miSetSubsystemData
mxAddField
mxAddFieldToStruct
mxAddToAllocList
mxApplyToAllArraysOnArrayList
mxAreMatricesEqual
mxAreMatricesEqualNanOptional
mxArray2String
mxArrayClassIDName
mxArrayStrCpy
mxArrayToByteChars
mxArrayToString
mxArrayToString_UTF16
mxArrayToString_UTF8
mxCalcSingleSubscript
mxCalcSingleSubscript_700
mxCalcSingleSubscript_730
mxCalloc
mxCallocEx
mxCallocExCheck
mxCatenateDispatch
mxCharMatrixToStrings
mxCharMatrixToStrings_UTF16
mxCharMatrixToStrings_UTF8
mxCheckOneArg
mxClearArrayContents
mxClearClasses
mxClearEmptySqrBrktFlag
mxColonop_fill_with_doubles
mxColonop_size
mxConvertBufferToType
mxConvertToIndex
mxCountColonObj
mxCountIntColonObj
mxCreateCellArray
mxCreateCellArray_700
mxCreateCellArray_730
mxCreateCellMatrix
mxCreateCellMatrix_700
mxCreateCellMatrix_730
mxCreateCharArray
mxCreateCharArray_700
mxCreateCharArray_730
mxCreateCharMatrixFromStrings
mxCreateCharMatrixFromStrings_700
mxCreateCharMatrixFromStrings_730
mxCreateCharMatrixFromStrings_UTF16
mxCreateCharMatrixFromStrings_UTF8
mxCreateCharMatrixFromStrs_700
mxCreateClaimedDataCopy
mxCreateClassArray
mxCreateConvertedCopy
mxCreateDeepCopy
mxCreateDoubleMatrix
mxCreateDoubleMatrix_700
mxCreateDoubleMatrix_730
mxCreateDoubleScalar
mxCreateEmptyCopy
mxCreateEmptyUnknownArrayNotOnArrayList
mxCreateLogicalArray
mxCreateLogicalArray_700
mxCreateLogicalArray_730
mxCreateLogicalMatrix
mxCreateLogicalMatrix_700
mxCreateLogicalMatrix_730
mxCreateLogicalScalar
mxCreateNumericArray
mxCreateNumericArray_700
mxCreateNumericArray_730
mxCreateNumericMatrix
mxCreateNumericMatrix_700
mxCreateNumericMatrix_730
mxCreateOpaqueArray
mxCreateOpaqueArrayClassUnknown
mxCreateOpaqueGiblet
mxCreateOpaqueMatrix
mxCreateReference
mxCreateSharedCopy
mxCreateSharedCopyNotOnArrayList
mxCreateSharedDataCopy
mxCreateSingleScalar
mxCreateSkeletonCopy
mxCreateSparse
mxCreateSparseLogicalMatrix
mxCreateSparseLogicalMatrix_700
mxCreateSparseLogicalMatrix_730
mxCreateSparseNumericMatrix
mxCreateSparse_700
mxCreateSparse_730
mxCreateStaticMethodArray
mxCreateString
mxCreateStringFromNChars
mxCreateStringFromNChars_700
mxCreateStringFromNChars_730
mxCreateStringFromNChars_UTF16
mxCreateStringFromNChars_UTF8
mxCreateString_UTF16
mxCreateString_UTF8
mxCreateStructArray
mxCreateStructArray_700
mxCreateStructArray_730
mxCreateStructMatrix
mxCreateStructMatrix_700
mxCreateStructMatrix_730
mxCreateUninitDoubleMatrix
mxCreateUninitNumericArray
mxCreateUninitNumericMatrix
mxDeserialize
mxDeserializeWithTag
mxDestroyArray
mxDuplicateArray
mxEnterNewAllocListContext
mxEnterNewArrayListContext
mxErrMsgTxt
mxExitAndFoldArrayListContext
mxExitArrayListContext
mxExpandColonObj
mxEye
mxFastZeros
mxFindClass
mxFree
mxFreeEx
mxFreeImagIfZero
mxFunctionHandleToSavedStruct
mxGetArrayScopeField
mxGetAttrName
mxGetAttributes
mxGetCell
mxGetCell_700
mxGetCell_730
mxGetCells
mxGetChars
mxGetClassID
mxGetClassName
mxGetComplexityAttr
mxGetData
mxGetDensityAttr
mxGetDimensions
mxGetDimensions_700
mxGetDimensions_730
mxGetElementSize
mxGetEnd
mxGetEps
mxGetField
mxGetFieldByNumber
mxGetFieldByNumber_700
mxGetFieldByNumber_730
mxGetFieldInfo
mxGetFieldNameByNumber
mxGetFieldNumber
mxGetField_700
mxGetField_730
mxGetFields
mxGetGlobalArray
mxGetGlobalArrayData
mxGetImagData
mxGetIndexedDestinationCopyFcn
mxGetIndexedSourceCopyFcn
mxGetInf
mxGetIr
mxGetIr_700
mxGetIr_730
mxGetJc
mxGetJc_700
mxGetJc_730
mxGetKernelBits
mxGetLastErrIdAndMsg
mxGetLastErrIdAndMsgAndStack
mxGetLastErrMsg
mxGetLogicals
mxGetM
mxGetN
mxGetNChars
mxGetNChars_700
mxGetNChars_730
mxGetNChars_UTF16
mxGetNaN
mxGetNumberOfDimensions
mxGetNumberOfDimensions_700
mxGetNumberOfDimensions_730
mxGetNumberOfElements
mxGetNumberOfFields
mxGetNzmax
mxGetNzmax_700
mxGetNzmax_730
mxGetObjectCheckSum
mxGetObjectClassName
mxGetOpaqueGiblet
mxGetPi
mxGetPr
mxGetProperty
mxGetProperty_700
mxGetProperty_730
mxGetReferenceCount
mxGetReshapeDims
mxGetScalar
mxGetScalarInt
mxGetShapeAttr
mxGetString
mxGetString_700
mxGetString_730
mxGetString_UTF16
mxGetString_UTF8
mxGetSubclass
mxGetUseRootRecord
mxGetUserBits
mxInPlaceBlockTranspose
mxInitAllocListManager
mxInitArray2Matrix
mxInitArrayListManager
mxIntColonop
mxIsA
mxIsCell
mxIsChar
mxIsCharVector
mxIsClass
mxIsClassUnknown
mxIsColonObj
mxIsCommaList
mxIsComplex
mxIsComplex2dMatrix
mxIsComplexVector
mxIsContainer
mxIsDouble
mxIsDouble2dMatrix
mxIsEmpty
mxIsEmptySqrBrktArray
mxIsExactSharedCopy
mxIsFinite
mxIsFiniteDoubleArray
mxIsFiniteNumeric2dMatrix
mxIsFiniteNumeric2dNonComplexMatrix
mxIsFiniteNumericArray
mxIsFiniteNumericVector
mxIsFiniteSingleArray
mxIsFloat
mxIsFromGlobalWS
mxIsFunctionHandle
mxIsGlobal
mxIsIdentical
mxIsIndexingOpaque
mxIsInf
mxIsInt16
mxIsInt32
mxIsInt64
mxIsInt8
mxIsIntOrUIntVector
mxIsIntScalar
mxIsIntVector
mxIsInteger
mxIsLocal
mxIsLogical
mxIsLogicalScalar
mxIsLogicalScalarTrue
mxIsMarked
mxIsNaN
mxIsNumeric
mxIsNumericInfOrNaNVector
mxIsObject
mxIsOnAllocList
mxIsOpaque
mxIsProtected
mxIsReal2dMatrix
mxIsRealInfOrNaNVector
mxIsRealOrInfScalar
mxIsRealOrInfVector
mxIsRealScalar
mxIsRealVector
mxIsReusable
mxIsScalar
mxIsSharedArray
mxIsSingle
mxIsSingle2dMatrix
mxIsSingleVector
mxIsSparse
mxIsStruct
mxIsStructClass
mxIsTemp
mxIsUint16
mxIsUint32
mxIsUint64
mxIsUint8
mxIsVector
mxIsVector2D
mxJitIsEmptyMatrix
mxMalloc
mxMallocEx
mxMallocExCheck
mxMoveArrayFromPreviousContext
mxMoveArrayOntoHeader
mxMoveCopyOntoHeader
mxMustBe
mxMustBeComplex
mxMustBeFull
mxMustBeFullDouble
mxMustBeSparse
mxOnes
mxPermuteFcn
mxReInitArray2ScalarDouble
mxRealloc
mxReallocEx
mxReallocExCheck
mxReloadClasses
mxRemoveField
mxRemoveFromAllocList
mxResetLocalArray
mxResize
mxRestorePreviousAllocListContext
mxSavedStructToFunctionHandle
mxScalarExpan
mxScalarRef
mxScalarRefConst
mxSearchClassArray
mxSerialize
mxSerializeEx
mxSerializeWithTag
mxSerializeWithTagEx
mxSetArrayScope
mxSetCell
mxSetCell_700
mxSetCell_730
mxSetCells
mxSetClassName
mxSetCommaList
mxSetCopyInCell
mxSetData
mxSetDimensions
mxSetDimensions_700
mxSetDimensions_730
mxSetEmptySqrBrktFlag
mxSetField
mxSetFieldByNumber
mxSetFieldByNumber_700
mxSetFieldByNumber_730
mxSetField_700
mxSetField_730
mxSetFields
mxSetFromGlobalWS
mxSetGlobalArray
mxSetGlobalArrayData
mxSetImagData
mxSetIoCallbacks
mxSetIr
mxSetIr_700
mxSetIr_730
mxSetJc
mxSetJc_700
mxSetJc_730
mxSetKernelBits
mxSetM
mxSetM_700
mxSetM_730
mxSetN
mxSetN_700
mxSetN_730
mxSetNzmax
mxSetNzmax_700
mxSetNzmax_730
mxSetObjectCheckSum
mxSetObjectClassName
mxSetObjectCreateDestroyFn
mxSetOpaqueGiblet
mxSetPi
mxSetPr
mxSetProperty
mxSetProperty_700
mxSetProperty_730
mxSetProtected
mxSetReferenceCount
mxSetReusable
mxSetUseRootRecord
mxSetUserBits
mxShutdownAllocList
mxShutdownArrayList
mxSizeofArray
mxStructureAssignment
mxStructureReference
mxSubclassOpaqueArray
mxSubsCount
mxSubsCount_700
mxSubscriptedAssignment
mxSubscriptedDelete
mxSubscriptedReference
mxTranspose
mxTransposeArray
mxTxtCmp
mxUnreference
mxUnshare
mxUnshareAndEmptyOtherArrays
mxUnshareArray
mxUnshareEx
mxUnshareOrEmptyOthers
mxUnshareOtherArrays
mxUnshareShallow
mxUnshareShallowEx
mxVErrMsgIdAndTxt
mxVWarningMsgIdAndTxt
