LIBRARY libmat.dll
EXPORTS
??0MAT1DSubset@@QEAA@AEBV0@@Z
??0MAT1DSubset@@QEAA@XZ
??0MAT1DSubsetAll@@QEAA@AEBV0@@Z
??0MAT1DSubsetAll@@QEAA@XZ
??0MAT1DSubsetEmpty@@QEAA@AEBV0@@Z
??0MAT1DSubsetEmpty@@QEAA@XZ
??0MAT1DSubsetExplicit@@QEAA@AEBV0@@Z
??0MAT1DSubsetExplicit@@QEAA@AEBV?$vector@_KV?$allocator@_K@std@@@std@@@Z
??0MAT1DSubsetRegularInterval@@QEAA@AEBV0@@Z
??0MAT1DSubsetRegularInterval@@QEAA@_K00@Z
??0MAT1DSubsetRegularInterval@@QEAA@_K0@Z
??0MAT1DSubsetRegularIntervalToEnd@@QEAA@AEBV0@@Z
??0MAT1DSubsetRegularIntervalToEnd@@QEAA@_K0@Z
??0MAT1DSubsetRegularIntervalToEnd@@QEAA@_K@Z
??0MAT1DSubsetSingleElement@@QEAA@AEBV0@@Z
??0MAT1DSubsetSingleElement@@QEAA@H@Z
??0MAT1DSubsetSingleElement@@QEAA@_K@Z
??0MATNumericSubset@@QEAA@AEAV?$vector@PEAVMAT1DSubset@@V?$allocator@PEAVMAT1DSubset@@@std@@@std@@@Z
??0MATNumericSubset@@QEAA@AEBV0@@Z
??0MATSubset@@IEAA@XZ
??0MATSubset@@QEAA@AEBV0@@Z
??1MAT1DSubset@@UEAA@XZ
??1MAT1DSubsetAll@@UEAA@XZ
??1MAT1DSubsetEmpty@@UEAA@XZ
??1MAT1DSubsetExplicit@@UEAA@XZ
??1MAT1DSubsetRegularInterval@@UEAA@XZ
??1MAT1DSubsetRegularIntervalToEnd@@UEAA@XZ
??1MAT1DSubsetSingleElement@@UEAA@XZ
??1MATNumericSubset@@UEAA@XZ
??1MATSubset@@MEAA@XZ
??4MAT1DSubset@@QEAAAEAV0@AEBV0@@Z
??4MAT1DSubsetAll@@QEAAAEAV0@AEBV0@@Z
??4MAT1DSubsetEmpty@@QEAAAEAV0@AEBV0@@Z
??4MAT1DSubsetExplicit@@QEAAAEAV0@AEBV0@@Z
??4MAT1DSubsetRegularInterval@@QEAAAEAV0@AEBV0@@Z
??4MAT1DSubsetRegularIntervalToEnd@@QEAAAEAV0@AEBV0@@Z
??4MAT1DSubsetSingleElement@@QEAAAEAV0@AEBV0@@Z
??4MATNumericSubset@@QEAAAEAV0@AEBV0@@Z
??4MATSubset@@QEAAAEAV0@AEBV0@@Z
?HDF5_to_ML_datatype@@YA?AW4mxClassID@@HAEAHAEA_NW4integerDecodingHint@@@Z
?MLClass_to_HDF5Type@@YAHW4mxClassID@@_N@Z
?clone@MAT1DSubsetAll@@UEBAPEAV1@XZ
?clone@MAT1DSubsetEmpty@@UEBAPEAV1@XZ
?clone@MAT1DSubsetExplicit@@UEBAPEAV1@XZ
?clone@MAT1DSubsetRegularInterval@@UEBAPEAV1@XZ
?clone@MAT1DSubsetRegularIntervalToEnd@@UEBAPEAV1@XZ
?clone@MAT1DSubsetSingleElement@@UEBAPEAV1@XZ
?extractSubset@@YAPEAUmxArray_tag@@PEBU1@PEBVMATNumericSubset@@@Z
?get_bounds@MATNumericSubset@@QEBA?AV?$_Vector_const_iterator@PEAVMAT1DSubset@@V?$allocator@PEAVMAT1DSubset@@@std@@@std@@XZ
?get_bounds_end@MATNumericSubset@@QEBA?AV?$_Vector_const_iterator@PEAVMAT1DSubset@@V?$allocator@PEAVMAT1DSubset@@@std@@@std@@XZ
?get_fields_for_group@@YA?AVCharStar_ptr@@H@Z
?get_impl@MAT1DSubsetAll@@UEBAPEAVMAT1DSubset_impl@@XZ
?get_impl@MAT1DSubsetEmpty@@UEBAPEAVMAT1DSubset_impl@@XZ
?get_impl@MAT1DSubsetExplicit@@UEBAPEAVMAT1DSubset_impl@@XZ
?get_impl@MAT1DSubsetRegularInterval@@UEBAPEAVMAT1DSubset_impl@@XZ
?get_impl@MAT1DSubsetRegularIntervalToEnd@@UEBAPEAVMAT1DSubset_impl@@XZ
?get_impl@MAT1DSubsetSingleElement@@UEBAPEAVMAT1DSubset_impl@@XZ
?insertSubset@@YAXPEAUmxArray_tag@@PEBU1@PEBVMATNumericSubset@@@Z
?maxElement@MAT1DSubset@@QEBA_KXZ
?nMembers@MAT1DSubset@@QEBA_KXZ
?rank@MATNumericSubset@@QEBA_KXZ
?writeMATHeader@@YAXPEAU_iobuf@@W4MATFileType@@@Z
MATCLOSE
MATDELETEVARIABLE
MATGETDIR
MATGETNEXTVARIABLE
MATGETNEXTVARIABLEINFO
MATGETVARIABLE
MATGETVARIABLEINFO
MATOPEN
MATPUTVARIABLE
MATPUTVARIABLEASGLOBAL
matClose
matCreateMATFile
matCreateVariable
matDeleteVariable
matGetDir
matGetErrno
matGetFileType
matGetFp
matGetNextVariable
matGetNextVariableInfo
matGetVariable
matGetVariableInfo
matGetVariableSubset
matGrowVariable
matOpen
matPutNextVariable
matPutVariable
matPutVariableAsGlobal
matPutVariableSubset
